; Function Attrs: mustprogress nofree norecurse nosync nounwind willreturn memory(argmem: readwrite) uwtable
define hidden void @_ZN11OpenImageIO6v3_1_013softimage_pvt13PicFileHeader11swap_endianEv(ptr noundef nonnull align 4 captures(none) dereferenceable(104) %0) local_unnamed_addr #5 align 2 {
.lr.ph.i:
  %1 = load i32, ptr %0, align 4, !tbaa !3
  %2 = tail call noundef i32 @llvm.bswap.i32(i32 %1)
  store i32 %2, ptr %0, align 4, !tbaa !3
  %3 = getelementptr inbounds nuw i8, ptr %0, i64 92
  %4 = load i16, ptr %3, align 4, !tbaa !7
  %5 = tail call noundef i16 @llvm.bswap.i16(i16 %4)
  store i16 %5, ptr %3, align 4, !tbaa !7
  %6 = getelementptr inbounds nuw i8, ptr %0, i64 94
  %7 = load i16, ptr %6, align 2, !tbaa !7
  %8 = tail call noundef i16 @llvm.bswap.i16(i16 %7)
  store i16 %8, ptr %6, align 2, !tbaa !7
  %9 = getelementptr inbounds nuw i8, ptr %0, i64 4
  %10 = load i32, ptr %9, align 4, !tbaa !9
  %11 = tail call noundef i32 @llvm.bswap.i32(i32 %10)
  store i32 %11, ptr %9, align 4, !tbaa !9
  %12 = getelementptr inbounds nuw i8, ptr %0, i64 96
  %13 = load i32, ptr %12, align 4, !tbaa !9
  %14 = tail call noundef i32 @llvm.bswap.i32(i32 %13)
  store i32 %14, ptr %12, align 4, !tbaa !9
  %15 = getelementptr inbounds nuw i8, ptr %0, i64 100
  %16 = load i16, ptr %15, align 4, !tbaa !7
  %17 = tail call noundef i16 @llvm.bswap.i16(i16 %16)
  store i16 %17, ptr %15, align 4, !tbaa !7
  ret void
}